(ideluge.core.torrentmanager
TorrentManagerState
p1
(dp2
S'torrents'
p3
(lp4
(ideluge.core.torrentmanager
TorrentState
p5
(dp6
S'max_download_speed'
p7
F-1
sS'move_completed_path'
p8
S'/home/daymoose/Downloads'
p9
sS'paused'
p10
I00
sS'max_upload_slots'
p11
I-1
sS'prioritize_first_last'
p12
I00
sS'max_connections'
p13
I-1
sS'compact'
p14
I00
sS'queue'
p15
I0
sS'file_priorities'
p16
(lp17
sS'filename'
p18
S'13e59c432b6fd563b7ea771a0c22fa77f4455b60.torrent'
p19
sS'max_upload_speed'
p20
F-1
sS'save_path'
p21
S'/home/daymoose/Downloads'
p22
sS'time_added'
p23
F1555955340.512737
sS'total_uploaded'
p24
I0
sS'torrent_id'
p25
S'13e59c432b6fd563b7ea771a0c22fa77f4455b60'
p26
sS'auto_managed'
p27
I01
sS'stop_at_ratio'
p28
I00
sS'move_completed'
p29
I00
sS'trackers'
p30
(lp31
(dp32
S'send_stats'
p33
I01
sS'fails'
p34
I0
sS'verified'
p35
I00
sS'scrape_incomplete'
p36
I-1
sS'min_announce'
p37
NsS'source'
p38
I4
sS'url'
p39
S'udp://tracker.coppersurfer.tk:6969/announce'
p40
sS'last_error'
p41
(dp42
S'category'
p43
S'system'
p44
sS'value'
p45
I0
ssS'fail_limit'
p46
I0
sS'next_announce'
p47
NsS'complete_sent'
p48
I00
sS'scrape_downloaded'
p49
I-1
sS'trackerid'
p50
S''
sS'start_sent'
p51
I00
sS'tier'
p52
I0
sS'scrape_complete'
p53
I-1
sS'message'
p54
S''
sS'updating'
p55
I00
sa(dp56
S'send_stats'
p57
I01
sS'fails'
p58
I0
sS'verified'
p59
I00
sS'scrape_incomplete'
p60
I-1
sS'min_announce'
p61
NsS'source'
p62
I4
sS'url'
p63
S'udp://tracker.coppersurfer.tk:6969'
p64
sS'last_error'
p65
(dp66
S'category'
p67
S'system'
p68
sS'value'
p69
I0
ssS'fail_limit'
p70
I0
sS'next_announce'
p71
NsS'complete_sent'
p72
I00
sS'scrape_downloaded'
p73
I-1
sS'trackerid'
p74
S''
sS'start_sent'
p75
I00
sS'tier'
p76
I1
sS'scrape_complete'
p77
I-1
sS'message'
p78
S''
sS'updating'
p79
I00
sa(dp80
S'send_stats'
p81
I01
sS'fails'
p82
I0
sS'verified'
p83
I00
sS'scrape_incomplete'
p84
I-1
sS'min_announce'
p85
NsS'source'
p86
I4
sS'url'
p87
S'udp://tracker.opentrackr.org:1337/announce'
p88
sS'last_error'
p89
(dp90
S'category'
p91
S'system'
p92
sS'value'
p93
I0
ssS'fail_limit'
p94
I0
sS'next_announce'
p95
NsS'complete_sent'
p96
I00
sS'scrape_downloaded'
p97
I-1
sS'trackerid'
p98
S''
sS'start_sent'
p99
I00
sS'tier'
p100
I2
sS'scrape_complete'
p101
I-1
sS'message'
p102
S''
sS'updating'
p103
I00
sa(dp104
S'send_stats'
p105
I01
sS'fails'
p106
I0
sS'verified'
p107
I00
sS'scrape_incomplete'
p108
I-1
sS'min_announce'
p109
NsS'source'
p110
I4
sS'url'
p111
S'udp://zer0day.ch:1337/announce'
p112
sS'last_error'
p113
(dp114
S'category'
p115
S'system'
p116
sS'value'
p117
I0
ssS'fail_limit'
p118
I0
sS'next_announce'
p119
NsS'complete_sent'
p120
I00
sS'scrape_downloaded'
p121
I-1
sS'trackerid'
p122
S''
sS'start_sent'
p123
I00
sS'tier'
p124
I3
sS'scrape_complete'
p125
I-1
sS'message'
p126
S''
sS'updating'
p127
I00
sa(dp128
S'send_stats'
p129
I01
sS'fails'
p130
I0
sS'verified'
p131
I00
sS'scrape_incomplete'
p132
I-1
sS'min_announce'
p133
NsS'source'
p134
I4
sS'url'
p135
S'udp://thetracker.org:80/announce'
p136
sS'last_error'
p137
(dp138
S'category'
p139
S'system'
p140
sS'value'
p141
I0
ssS'fail_limit'
p142
I0
sS'next_announce'
p143
NsS'complete_sent'
p144
I00
sS'scrape_downloaded'
p145
I-1
sS'trackerid'
p146
S''
sS'start_sent'
p147
I00
sS'tier'
p148
I4
sS'scrape_complete'
p149
I-1
sS'message'
p150
S''
sS'updating'
p151
I00
sa(dp152
S'send_stats'
p153
I01
sS'fails'
p154
I0
sS'verified'
p155
I00
sS'scrape_incomplete'
p156
I-1
sS'min_announce'
p157
NsS'source'
p158
I4
sS'url'
p159
S'udp://tracker.aletorrenty.pl:2710/announce'
p160
sS'last_error'
p161
(dp162
S'category'
p163
S'system'
p164
sS'value'
p165
I0
ssS'fail_limit'
p166
I0
sS'next_announce'
p167
NsS'complete_sent'
p168
I00
sS'scrape_downloaded'
p169
I-1
sS'trackerid'
p170
S''
sS'start_sent'
p171
I00
sS'tier'
p172
I5
sS'scrape_complete'
p173
I-1
sS'message'
p174
S''
sS'updating'
p175
I00
sa(dp176
S'send_stats'
p177
I01
sS'fails'
p178
I0
sS'verified'
p179
I00
sS'scrape_incomplete'
p180
I-1
sS'min_announce'
p181
NsS'source'
p182
I4
sS'url'
p183
S'udp://explodie.org:6969/announce'
p184
sS'last_error'
p185
(dp186
S'category'
p187
S'system'
p188
sS'value'
p189
I0
ssS'fail_limit'
p190
I0
sS'next_announce'
p191
NsS'complete_sent'
p192
I00
sS'scrape_downloaded'
p193
I-1
sS'trackerid'
p194
S''
sS'start_sent'
p195
I00
sS'tier'
p196
I6
sS'scrape_complete'
p197
I-1
sS'message'
p198
S''
sS'updating'
p199
I00
sa(dp200
S'send_stats'
p201
I01
sS'fails'
p202
I0
sS'verified'
p203
I00
sS'scrape_incomplete'
p204
I-1
sS'min_announce'
p205
NsS'source'
p206
I4
sS'url'
p207
S'udp://p4p.arenabg.ch:1337/announce'
p208
sS'last_error'
p209
(dp210
S'category'
p211
S'system'
p212
sS'value'
p213
I0
ssS'fail_limit'
p214
I0
sS'next_announce'
p215
NsS'complete_sent'
p216
I00
sS'scrape_downloaded'
p217
I-1
sS'trackerid'
p218
S''
sS'start_sent'
p219
I00
sS'tier'
p220
I7
sS'scrape_complete'
p221
I-1
sS'message'
p222
S''
sS'updating'
p223
I00
sa(dp224
S'send_stats'
p225
I01
sS'fails'
p226
I0
sS'verified'
p227
I00
sS'scrape_incomplete'
p228
I-1
sS'min_announce'
p229
NsS'source'
p230
I4
sS'url'
p231
S'udp://9.rarbg.to:2710/announce'
p232
sS'last_error'
p233
(dp234
S'category'
p235
S'system'
p236
sS'value'
p237
I0
ssS'fail_limit'
p238
I0
sS'next_announce'
p239
NsS'complete_sent'
p240
I00
sS'scrape_downloaded'
p241
I-1
sS'trackerid'
p242
S''
sS'start_sent'
p243
I00
sS'tier'
p244
I8
sS'scrape_complete'
p245
I-1
sS'message'
p246
S''
sS'updating'
p247
I00
sa(dp248
S'send_stats'
p249
I01
sS'fails'
p250
I0
sS'verified'
p251
I00
sS'scrape_incomplete'
p252
I-1
sS'min_announce'
p253
NsS'source'
p254
I4
sS'url'
p255
S'udp://9.rarbg.me:2710/announce'
p256
sS'last_error'
p257
(dp258
S'category'
p259
S'system'
p260
sS'value'
p261
I0
ssS'fail_limit'
p262
I0
sS'next_announce'
p263
NsS'complete_sent'
p264
I00
sS'scrape_downloaded'
p265
I-1
sS'trackerid'
p266
S''
sS'start_sent'
p267
I00
sS'tier'
p268
I9
sS'scrape_complete'
p269
I-1
sS'message'
p270
S''
sS'updating'
p271
I00
sa(dp272
S'send_stats'
p273
I01
sS'fails'
p274
I0
sS'verified'
p275
I00
sS'scrape_incomplete'
p276
I-1
sS'min_announce'
p277
NsS'source'
p278
I4
sS'url'
p279
S'udp://eddie4.nl:6969/announce'
p280
sS'last_error'
p281
(dp282
S'category'
p283
S'system'
p284
sS'value'
p285
I0
ssS'fail_limit'
p286
I0
sS'next_announce'
p287
NsS'complete_sent'
p288
I00
sS'scrape_downloaded'
p289
I-1
sS'trackerid'
p290
S''
sS'start_sent'
p291
I00
sS'tier'
p292
I10
sS'scrape_complete'
p293
I-1
sS'message'
p294
S''
sS'updating'
p295
I00
sa(dp296
S'send_stats'
p297
I01
sS'fails'
p298
I0
sS'verified'
p299
I00
sS'scrape_incomplete'
p300
I-1
sS'min_announce'
p301
NsS'source'
p302
I4
sS'url'
p303
S'udp://tracker.sktorrent.net:6969/announce'
p304
sS'last_error'
p305
(dp306
S'category'
p307
S'system'
p308
sS'value'
p309
I0
ssS'fail_limit'
p310
I0
sS'next_announce'
p311
NsS'complete_sent'
p312
I00
sS'scrape_downloaded'
p313
I-1
sS'trackerid'
p314
S''
sS'start_sent'
p315
I00
sS'tier'
p316
I11
sS'scrape_complete'
p317
I-1
sS'message'
p318
S''
sS'updating'
p319
I00
sa(dp320
S'send_stats'
p321
I01
sS'fails'
p322
I0
sS'verified'
p323
I00
sS'scrape_incomplete'
p324
I-1
sS'min_announce'
p325
NsS'source'
p326
I4
sS'url'
p327
S'udp://torrent.gresille.org:80/announce'
p328
sS'last_error'
p329
(dp330
S'category'
p331
S'system'
p332
sS'value'
p333
I0
ssS'fail_limit'
p334
I0
sS'next_announce'
p335
NsS'complete_sent'
p336
I00
sS'scrape_downloaded'
p337
I-1
sS'trackerid'
p338
S''
sS'start_sent'
p339
I00
sS'tier'
p340
I12
sS'scrape_complete'
p341
I-1
sS'message'
p342
S''
sS'updating'
p343
I00
sa(dp344
S'send_stats'
p345
I01
sS'fails'
p346
I0
sS'verified'
p347
I00
sS'scrape_incomplete'
p348
I-1
sS'min_announce'
p349
NsS'source'
p350
I4
sS'url'
p351
S'udp://tracker.piratepublic.com:1337/announce'
p352
sS'last_error'
p353
(dp354
S'category'
p355
S'system'
p356
sS'value'
p357
I0
ssS'fail_limit'
p358
I0
sS'next_announce'
p359
NsS'complete_sent'
p360
I00
sS'scrape_downloaded'
p361
I-1
sS'trackerid'
p362
S''
sS'start_sent'
p363
I00
sS'tier'
p364
I13
sS'scrape_complete'
p365
I-1
sS'message'
p366
S''
sS'updating'
p367
I00
sa(dp368
S'send_stats'
p369
I01
sS'fails'
p370
I0
sS'verified'
p371
I00
sS'scrape_incomplete'
p372
I-1
sS'min_announce'
p373
NsS'source'
p374
I4
sS'url'
p375
S'udp://tracker.zer0day.to:1337/announce'
p376
sS'last_error'
p377
(dp378
S'category'
p379
S'system'
p380
sS'value'
p381
I0
ssS'fail_limit'
p382
I0
sS'next_announce'
p383
NsS'complete_sent'
p384
I00
sS'scrape_downloaded'
p385
I-1
sS'trackerid'
p386
S''
sS'start_sent'
p387
I00
sS'tier'
p388
I14
sS'scrape_complete'
p389
I-1
sS'message'
p390
S''
sS'updating'
p391
I00
sa(dp392
S'send_stats'
p393
I01
sS'fails'
p394
I0
sS'verified'
p395
I00
sS'scrape_incomplete'
p396
I-1
sS'min_announce'
p397
NsS'source'
p398
I4
sS'url'
p399
S'udp://tracker.leechers-paradise.org:6969/announce'
p400
sS'last_error'
p401
(dp402
S'category'
p403
S'system'
p404
sS'value'
p405
I0
ssS'fail_limit'
p406
I0
sS'next_announce'
p407
NsS'complete_sent'
p408
I00
sS'scrape_downloaded'
p409
I-1
sS'trackerid'
p410
S''
sS'start_sent'
p411
I00
sS'tier'
p412
I15
sS'scrape_complete'
p413
I-1
sS'message'
p414
S''
sS'updating'
p415
I00
sa(dp416
S'send_stats'
p417
I01
sS'fails'
p418
I0
sS'verified'
p419
I00
sS'scrape_incomplete'
p420
I-1
sS'min_announce'
p421
NsS'source'
p422
I4
sS'url'
p423
S'udp://coppersurfer.tk:6969/announce'
p424
sS'last_error'
p425
(dp426
S'category'
p427
S'system'
p428
sS'value'
p429
I0
ssS'fail_limit'
p430
I0
sS'next_announce'
p431
NsS'complete_sent'
p432
I00
sS'scrape_downloaded'
p433
I-1
sS'trackerid'
p434
S''
sS'start_sent'
p435
I00
sS'tier'
p436
I16
sS'scrape_complete'
p437
I-1
sS'message'
p438
S''
sS'updating'
p439
I00
sasS'magnet'
p440
S'magnet:?xt=urn:btih:13E59C432B6FD563B7EA771A0C22FA77F4455B60&dn=Mr.Robot.S02E07.720p.HDTV.x264-FLEET%5BPRiME%5D&tr=udp%3A%2F%2Ftracker.coppersurfer.tk%3A6969%2Fannounce&tr=udp%3A%2F%2Ftracker.coppersurfer.tk%3A6969&tr=udp%3A%2F%2Ftracker.opentrackr.org%3A1337%2Fannounce&tr=udp%3A%2F%2Fzer0day.ch%3A1337%2Fannounce&tr=udp%3A%2F%2Fthetracker.org%3A80%2Fannounce&tr=udp%3A%2F%2Ftracker.aletorrenty.pl%3A2710%2Fannounce&tr=udp%3A%2F%2Fexplodie.org%3A6969%2Fannounce&tr=udp%3A%2F%2Fp4p.arenabg.ch%3A1337%2Fannounce&tr=udp%3A%2F%2F9.rarbg.to%3A2710%2Fannounce&tr=udp%3A%2F%2F9.rarbg.me%3A2710%2Fannounce&tr=udp%3A%2F%2Feddie4.nl%3A6969%2Fannounce&tr=udp%3A%2F%2Ftracker.sktorrent.net%3A6969%2Fannounce&tr=udp%3A%2F%2Ftorrent.gresille.org%3A80%2Fannounce&tr=udp%3A%2F%2Ftracker.piratepublic.com%3A1337%2Fannounce&tr=udp%3A%2F%2Ftracker.zer0day.to%3A1337%2Fannounce&tr=udp%3A%2F%2Ftracker.leechers-paradise.org%3A6969%2Fannounce&tr=udp%3A%2F%2Fcoppersurfer.tk%3A6969%2Fannounce'
p441
sS'remove_at_ratio'
p442
I00
sS'stop_ratio'
p443
F2
sS'is_finished'
p444
I00
sbasb.